; Function Attrs: nounwind uwtable
define hidden range(i32 -2147483648, 2) i32 @CONF_parse_list(ptr noundef %0, i8 noundef signext %1, i32 noundef %2, ptr noundef readonly captures(none) %3, ptr noundef %4) local_unnamed_addr #0 {
  %6 = icmp eq ptr %0, null
  br i1 %6, label %30, label %.preheader43

.preheader43:                                     ; preds = %5
  %.not = icmp eq i32 %2, 0
  %7 = sext i8 %1 to i32
  br i1 %.not, label %.critedge.us, label %.preheader42

.critedge.us:                                     ; preds = %.preheader43, %27
  %.030.us = phi ptr [ %29, %27 ], [ %0, %.preheader43 ]
  %8 = tail call ptr @strchr(ptr noundef nonnull dereferenceable(1) %.030.us, i32 noundef %7) #13
  %9 = icmp eq ptr %8, %.030.us
  br i1 %9, label %23, label %10

10:                                               ; preds = %.critedge.us
  %11 = load i8, ptr %.030.us, align 1, !tbaa !21
  %.not39.us = icmp eq i8 %11, 0
  br i1 %.not39.us, label %23, label %12

12:                                               ; preds = %10
  %.not40.us = icmp eq ptr %8, null
  br i1 %.not40.us, label %13, label %16

13:                                               ; preds = %12
  %14 = tail call i64 @strlen(ptr noundef nonnull dereferenceable(1) %.030.us) #13
  %15 = getelementptr inbounds nuw i8, ptr %.030.us, i64 %14
  br label %16

16:                                               ; preds = %13, %12
  %.pn.us = phi ptr [ %15, %13 ], [ %8, %12 ]
  %.029.us = getelementptr inbounds i8, ptr %.pn.us, i64 -1
  %17 = ptrtoint ptr %.029.us to i64
  %18 = ptrtoint ptr %.030.us to i64
  %19 = sub i64 %17, %18
  %20 = trunc i64 %19 to i32
  %21 = add i32 %20, 1
  %22 = tail call i32 %3(ptr noundef nonnull %.030.us, i32 noundef %21, ptr noundef %4) #12
  br label %25

23:                                               ; preds = %10, %.critedge.us
  %24 = tail call i32 %3(ptr noundef null, i32 noundef 0, ptr noundef %4) #12
  br label %25

25:                                               ; preds = %23, %16
  %.033.us = phi i32 [ %24, %23 ], [ %22, %16 ]
  %26 = icmp slt i32 %.033.us, 1
  br i1 %26, label %.loopexit44, label %27

27:                                               ; preds = %25
  %28 = icmp eq ptr %8, null
  %29 = getelementptr inbounds nuw i8, ptr %8, i64 1
  br i1 %28, label %.loopexit44, label %.critedge.us

30:                                               ; preds = %5
  tail call void @ERR_put_error(i32 noundef 13, i32 noundef 0, i32 noundef 100, ptr noundef nonnull @.str, i32 noundef 744) #12
  br label %.loopexit44

.preheader42:                                     ; preds = %.preheader43, %69
  %.030 = phi ptr [ %71, %69 ], [ %0, %.preheader43 ]
  %31 = load i8, ptr %.030, align 1, !tbaa !21
  %.not3745 = icmp eq i8 %31, 0
  br i1 %.not3745, label %.critedge.loopexit.thread, label %.lr.ph

.lr.ph:                                           ; preds = %.preheader42
  %32 = tail call ptr @__ctype_b_loc() #14
  %33 = load ptr, ptr %32, align 8, !tbaa !34
  br label %34

34:                                               ; preds = %.lr.ph, %40
  %35 = phi i8 [ %31, %.lr.ph ], [ %42, %40 ]
  %.23246 = phi ptr [ %.030, %.lr.ph ], [ %41, %40 ]
  %36 = zext i8 %35 to i64
  %37 = getelementptr inbounds nuw i16, ptr %33, i64 %36
  %38 = load i16, ptr %37, align 2, !tbaa !24
  %39 = and i16 %38, 8192
  %.not38.not.not.not = icmp ne i16 %39, 0
  br i1 %.not38.not.not.not, label %40, label %.critedge.loopexit

40:                                               ; preds = %34
  %41 = getelementptr inbounds nuw i8, ptr %.23246, i64 1
  %42 = load i8, ptr %41, align 1, !tbaa !21
  %.not37 = icmp eq i8 %42, 0
  br i1 %.not37, label %.critedge.loopexit, label %34, !llvm.loop !36

.critedge.loopexit:                               ; preds = %34, %40
  %.232.lcssa = phi ptr [ %.23246, %34 ], [ %41, %40 ]
  %43 = tail call ptr @strchr(ptr noundef nonnull dereferenceable(1) %.232.lcssa, i32 noundef %7) #13
  %44 = icmp eq ptr %43, %.232.lcssa
  %brmerge = or i1 %44, %.not38.not.not.not
  br i1 %brmerge, label %.thread, label %48

.critedge.loopexit.thread:                        ; preds = %.preheader42
  %45 = tail call ptr @strchr(ptr noundef nonnull dereferenceable(1) %.030, i32 noundef %7) #13
  br label %.thread

.thread:                                          ; preds = %.critedge.loopexit, %.critedge.loopexit.thread
  %46 = phi ptr [ %43, %.critedge.loopexit ], [ %45, %.critedge.loopexit.thread ]
  %47 = tail call i32 %3(ptr noundef null, i32 noundef 0, ptr noundef %4) #12
  br label %66

48:                                               ; preds = %.critedge.loopexit
  %.not40 = icmp eq ptr %43, null
  br i1 %.not40, label %49, label %.preheader

49:                                               ; preds = %48
  %50 = tail call i64 @strlen(ptr noundef nonnull dereferenceable(1) %.232.lcssa) #13
  %51 = getelementptr inbounds nuw i8, ptr %.232.lcssa, i64 %50
  br label %.preheader

.preheader:                                       ; preds = %48, %49
  %.pn = phi ptr [ %51, %49 ], [ %43, %48 ]
  %52 = tail call ptr @__ctype_b_loc() #14
  %53 = load ptr, ptr %52, align 8, !tbaa !34
  br label %54

54:                                               ; preds = %54, %.preheader
  %.2.pn = phi ptr [ %.2, %54 ], [ %.pn, %.preheader ]
  %.2 = getelementptr inbounds i8, ptr %.2.pn, i64 -1
  %55 = load i8, ptr %.2, align 1, !tbaa !21
  %56 = zext i8 %55 to i64
  %57 = getelementptr inbounds nuw i16, ptr %53, i64 %56
  %58 = load i16, ptr %57, align 2, !tbaa !24
  %59 = and i16 %58, 8192
  %.not41 = icmp eq i16 %59, 0
  br i1 %.not41, label %.loopexit, label %54, !llvm.loop !37

.loopexit:                                        ; preds = %54
  %60 = ptrtoint ptr %.2 to i64
  %61 = ptrtoint ptr %.232.lcssa to i64
  %62 = sub i64 %60, %61
  %63 = trunc i64 %62 to i32
  %64 = add i32 %63, 1
  %65 = tail call i32 %3(ptr noundef nonnull %.232.lcssa, i32 noundef %64, ptr noundef %4) #12
  br label %66

66:                                               ; preds = %.loopexit, %.thread
  %67 = phi ptr [ %46, %.thread ], [ %43, %.loopexit ]
  %.033 = phi i32 [ %47, %.thread ], [ %65, %.loopexit ]
  %68 = icmp slt i32 %.033, 1
  br i1 %68, label %.loopexit44, label %69

69:                                               ; preds = %66
  %70 = icmp eq ptr %67, null
  %71 = getelementptr inbounds nuw i8, ptr %67, i64 1
  br i1 %70, label %.loopexit44, label %.preheader42

.loopexit44:                                      ; preds = %66, %69, %27, %25, %30
  %.0 = phi i32 [ 0, %30 ], [ 1, %27 ], [ %.033.us, %25 ], [ 1, %69 ], [ %.033, %66 ]
  ret i32 %.0
}